; Function Attrs: mustprogress uwtable
define void @_ZN17RtpAnalysisDialog13addRtpStreamsE5QListIP13_rtpstream_idE(ptr noundef nonnull align 8 dereferenceable(328) %0, ptr nocapture noundef readonly %1) local_unnamed_addr #0 align 2 personality ptr @__gxx_personality_v0 {
  %3 = alloca %class.QList.78, align 8
  %4 = tail call noundef i32 @pthread_mutex_trylock(ptr noundef nonnull @_ZN17RtpAnalysisDialog10run_mutex_E) #19
  %.not.i.i = icmp eq i32 %4, 0
  br i1 %.not.i.i, label %5, label %26

5:                                                ; preds = %2
  %6 = load ptr, ptr %1, align 8
  store ptr %6, ptr %3, align 8
  %7 = getelementptr inbounds i8, ptr %3, i64 8
  %8 = getelementptr inbounds i8, ptr %1, i64 8
  %9 = load ptr, ptr %8, align 8
  store ptr %9, ptr %7, align 8
  %10 = getelementptr inbounds i8, ptr %3, i64 16
  %11 = getelementptr inbounds i8, ptr %1, i64 16
  %12 = load i64, ptr %11, align 8
  store i64 %12, ptr %10, align 8
  %.not.i.i.i = icmp eq ptr %6, null
  br i1 %.not.i.i.i, label %_ZN5QListIP13_rtpstream_idEC2ERKS2_.exit, label %13

13:                                               ; preds = %5
  %14 = atomicrmw add ptr %6, i32 1 seq_cst, align 4
  br label %_ZN5QListIP13_rtpstream_idEC2ERKS2_.exit

_ZN5QListIP13_rtpstream_idEC2ERKS2_.exit:         ; preds = %5, %13
  invoke void @_ZN17RtpAnalysisDialog20addRtpStreamsPrivateE5QListIP13_rtpstream_idE(ptr noundef nonnull align 8 dereferenceable(328) %0, ptr noundef nonnull %3)
          to label %15 unwind label %20

15:                                               ; preds = %_ZN5QListIP13_rtpstream_idEC2ERKS2_.exit
  %16 = load ptr, ptr %3, align 8
  %.not.i.i.i4 = icmp eq ptr %16, null
  br i1 %.not.i.i.i4, label %27, label %_ZN17QArrayDataPointerIP13_rtpstream_idE5derefEv.exit.i.i

_ZN17QArrayDataPointerIP13_rtpstream_idE5derefEv.exit.i.i: ; preds = %15
  %17 = atomicrmw sub ptr %16, i32 1 seq_cst, align 4
  %.not.i.i5 = icmp eq i32 %17, 1
  br i1 %.not.i.i5, label %18, label %27

18:                                               ; preds = %_ZN17QArrayDataPointerIP13_rtpstream_idE5derefEv.exit.i.i
  %19 = load ptr, ptr %3, align 8
  tail call void @_ZN10QArrayData10deallocateEPS_xx(ptr noundef %19, i64 noundef 8, i64 noundef 8) #19
  br label %27

20:                                               ; preds = %_ZN5QListIP13_rtpstream_idEC2ERKS2_.exit
  %21 = landingpad { ptr, i32 }
          cleanup
  %22 = load ptr, ptr %3, align 8
  %.not.i.i.i6 = icmp eq ptr %22, null
  br i1 %.not.i.i.i6, label %_ZNSt11unique_lockISt5mutexED2Ev.exit12, label %_ZN17QArrayDataPointerIP13_rtpstream_idE5derefEv.exit.i.i7

_ZN17QArrayDataPointerIP13_rtpstream_idE5derefEv.exit.i.i7: ; preds = %20
  %23 = atomicrmw sub ptr %22, i32 1 seq_cst, align 4
  %.not.i.i8 = icmp eq i32 %23, 1
  br i1 %.not.i.i8, label %24, label %_ZNSt11unique_lockISt5mutexED2Ev.exit12

24:                                               ; preds = %_ZN17QArrayDataPointerIP13_rtpstream_idE5derefEv.exit.i.i7
  %25 = load ptr, ptr %3, align 8
  tail call void @_ZN10QArrayData10deallocateEPS_xx(ptr noundef %25, i64 noundef 8, i64 noundef 8) #19
  br label %_ZNSt11unique_lockISt5mutexED2Ev.exit12

26:                                               ; preds = %2
  tail call void (ptr, i32, ptr, i64, ptr, ptr, ...) @ws_log_full(ptr noundef nonnull @.str.80, i32 noundef 5, ptr noundef nonnull @.str.81, i64 noundef 1054, ptr noundef nonnull @__func__._ZN17RtpAnalysisDialog13addRtpStreamsE5QListIP13_rtpstream_idE, ptr noundef nonnull @.str.83)
  br label %_ZNSt11unique_lockISt5mutexED2Ev.exit

27:                                               ; preds = %15, %_ZN17QArrayDataPointerIP13_rtpstream_idE5derefEv.exit.i.i, %18
  %28 = tail call noundef i32 @pthread_mutex_unlock(ptr noundef nonnull @_ZN17RtpAnalysisDialog10run_mutex_E) #19
  br label %_ZNSt11unique_lockISt5mutexED2Ev.exit

_ZNSt11unique_lockISt5mutexED2Ev.exit:            ; preds = %26, %27
  ret void

_ZNSt11unique_lockISt5mutexED2Ev.exit12:          ; preds = %20, %_ZN17QArrayDataPointerIP13_rtpstream_idE5derefEv.exit.i.i7, %24
  %29 = tail call noundef i32 @pthread_mutex_unlock(ptr noundef nonnull @_ZN17RtpAnalysisDialog10run_mutex_E) #19
  resume { ptr, i32 } %21
}